(dp0
S'username'
p1
S'Obligatoire'
p2
sS'nom'
p3
S'jerome'
p4
sS'useremail'
p5
g2
sS'prenom'
p6
S'remy'
p7
sS'firstname'
p8
S'Facultatif'
p9
sS'lastname'
p10
g9
sS'dateNaissance'
p11
S'19/06/1993'
p12
sS'birthdate'
p13
g9
sS'nomUtilisateur'
p14
S'rejerome'
p15
sS'userpwd'
p16
g2
sS'mdp'
p17
S'Standard1'
p18
sS'email'
p19
S'test.test@test.fr'
p20
s.