(dp0
S'username'
p1
S'rejerome'
p2
sS'useremail'
p3
S'Obligatoire'
p4
sS'firstname'
p5
S'remy'
p6
sS'lastname'
p7
S'jerome'
p8
sS'dateNaissance'
p9
S'19/06/1993'
p10
sS'birthdate'
p11
S'Facultatif'
p12
sS'userpwd'
p13
S'dc7684585ec1521b818b5a1af80b167a663934d12139d58c284be3a28ce4b05ccec39b9fec7c91439bc720d2fa2ef1d9f56df393d39e27357d3221566cda8ca2'
p14
sS'email'
p15
S'nico.nico@test.fr'
p16
s.